; Function Attrs: inlinehint mustprogress nounwind uwtable
define internal void @_ZN7testing8internal24ParameterizedTestFactoryIN12_GLOBAL__N_145SerializeP_DeserializeAtFromAnyAlignment_TestEED0Ev(ptr noundef nonnull align 8 dereferenceable(96) initializes((0, 8)) %0) unnamed_addr #14 align 2 personality ptr @__gxx_personality_v0 {
  store ptr getelementptr inbounds nuw inrange(-16, 24) (i8, ptr @_ZTVN7testing8internal24ParameterizedTestFactoryIN12_GLOBAL__N_145SerializeP_DeserializeAtFromAnyAlignment_TestEEE, i64 16), ptr %0, align 8
  %2 = getelementptr inbounds nuw i8, ptr %0, i64 8
  %3 = load ptr, ptr %2, align 8
  %4 = getelementptr inbounds nuw i8, ptr %0, i64 24
  %5 = icmp eq ptr %3, %4
  br i1 %5, label %_ZNKSt7__cxx1112basic_stringIcSt11char_traitsIcESaIcEE11_M_is_localEv.exit.thread.i.i.i.i.i, label %_ZNKSt7__cxx1112basic_stringIcSt11char_traitsIcESaIcEE11_M_is_localEv.exit.i.i.i.i.i

_ZNKSt7__cxx1112basic_stringIcSt11char_traitsIcESaIcEE11_M_is_localEv.exit.thread.i.i.i.i.i: ; preds = %1
  %6 = getelementptr inbounds nuw i8, ptr %0, i64 16
  %7 = load i64, ptr %6, align 8
  %8 = icmp ult i64 %7, 16
  tail call void @llvm.assume(i1 %8)
  br label %_ZN7testing8internal24ParameterizedTestFactoryIN12_GLOBAL__N_145SerializeP_DeserializeAtFromAnyAlignment_TestEED2Ev.exit

_ZNKSt7__cxx1112basic_stringIcSt11char_traitsIcESaIcEE11_M_is_localEv.exit.i.i.i.i.i: ; preds = %1
  tail call void @_ZdlPv(ptr noundef %3) #29
  br label %_ZN7testing8internal24ParameterizedTestFactoryIN12_GLOBAL__N_145SerializeP_DeserializeAtFromAnyAlignment_TestEED2Ev.exit

_ZN7testing8internal24ParameterizedTestFactoryIN12_GLOBAL__N_145SerializeP_DeserializeAtFromAnyAlignment_TestEED2Ev.exit: ; preds = %_ZNKSt7__cxx1112basic_stringIcSt11char_traitsIcESaIcEE11_M_is_localEv.exit.thread.i.i.i.i.i, %_ZNKSt7__cxx1112basic_stringIcSt11char_traitsIcESaIcEE11_M_is_localEv.exit.i.i.i.i.i
  tail call void @_ZdlPv(ptr noundef nonnull %0) #29
  ret void
}